; Function Attrs: mustprogress uwtable
define void @_ZN5ImGui8TreePushEPKc(ptr noundef %0) local_unnamed_addr #6 {
  %2 = load ptr, ptr @GImGui, align 8, !tbaa !3
  %3 = getelementptr inbounds nuw i8, ptr %2, i64 5016
  %4 = load ptr, ptr %3, align 8, !tbaa !8
  %5 = getelementptr inbounds nuw i8, ptr %4, i64 204
  store i8 1, ptr %5, align 4, !tbaa !130
  tail call void @_ZN5ImGui6IndentEf(float noundef 0.000000e+00)
  %6 = getelementptr inbounds nuw i8, ptr %4, i64 416
  %7 = load i32, ptr %6, align 8, !tbaa !555
  %8 = add nsw i32 %7, 1
  store i32 %8, ptr %6, align 8, !tbaa !555
  tail call void @_ZN5ImGui6PushIDEPKc(ptr noundef %0)
  ret void
}